(c__builtin__
set
p1
((lp2
(idrinkz.recipes
Recipe
p3
(dp4
S'_votes'
p5
F2
sS'_ingredients'
p6
g1
((lp7
(S'Rum'
S' 4 oz'
tp8
a(S' Coke'
S' 5 oz'
tp9
atRp10
sS'_score'
p11
F9
sS'_name'
p12
S'Rum and Coke'
p13
sbatRp14
g1
((lp15
S'ConnorRum and Coke'
p16
aS'Rum and Coke'
p17
atRp18
tp19
.