(c__builtin__
set
p1
((lp2
(S'Johnnie Walker'
p3
S'Black Label'
p4
S'blended scotch'
p5
tp6
atRp7
(dp8
(g3
g4
tp9
(lp10
S'1000 ml'
p11
asg1
((lp12
(idrinkz.recipes
Recipe
p13
(dp14
S'_votes'
p15
F0
sS'_ingredients'
p16
g1
((lp17
(g5
S'4 oz'
p18
tp19
atRp20
sS'_score'
p21
F0
sS'_name'
p22
S'scotch on the rocks'
p23
sba(idrinkz.recipes
Recipe
p24
(dp25
g15
F0
sg16
g1
((lp26
(S'gin'
p27
g18
tp28
atRp29
sg21
F0
sg22
S'gin and tonic'
p30
sbatRp31
g1
((ltRp32
tp33
.